; Function Attrs: nounwind uwtable
define hidden i32 @Curl_pp_vsendf(ptr noundef %0, ptr noundef %1, ptr noundef %2, ptr noundef %3) local_unnamed_addr #0 {
  %5 = alloca i64, align 8
  call void @llvm.lifetime.start.p0(i64 8, ptr nonnull %5) #10
  store i64 0, ptr %5, align 8, !tbaa !85
  %6 = getelementptr inbounds nuw i8, ptr %0, i64 24
  %7 = load ptr, ptr %6, align 8, !tbaa !3
  %.not = icmp eq ptr %7, null
  br i1 %.not, label %32, label %8

8:                                                ; preds = %4
  %9 = getelementptr inbounds nuw i8, ptr %1, i64 64
  tail call void @Curl_dyn_reset(ptr noundef nonnull %9) #10
  %10 = tail call i32 @Curl_dyn_vaddf(ptr noundef nonnull %9, ptr noundef %2, ptr noundef %3) #10
  %.not37 = icmp eq i32 %10, 0
  br i1 %.not37, label %11, label %32

11:                                               ; preds = %8
  %12 = tail call i32 @Curl_dyn_addn(ptr noundef nonnull %9, ptr noundef nonnull @.str.2, i64 noundef 2) #10
  %.not38 = icmp eq i32 %12, 0
  br i1 %.not38, label %13, label %32

13:                                               ; preds = %11
  %14 = getelementptr inbounds nuw i8, ptr %1, i64 8
  store i8 1, ptr %14, align 8, !tbaa !86
  %15 = tail call i64 @Curl_dyn_len(ptr noundef nonnull %9) #10
  %16 = tail call ptr @Curl_dyn_ptr(ptr noundef nonnull %9) #10
  %17 = call i32 @Curl_conn_send(ptr noundef nonnull %0, i32 noundef 0, ptr noundef %16, i64 noundef %15, i1 noundef zeroext false, ptr noundef nonnull %5) #10
  switch i32 %17, label %32 [
    i32 81, label %18
    i32 0, label %._crit_edge
  ]

._crit_edge:                                      ; preds = %13
  %.pre = load i64, ptr %5, align 8, !tbaa !85
  br label %19

18:                                               ; preds = %13
  store i64 0, ptr %5, align 8, !tbaa !85
  br label %19

19:                                               ; preds = %._crit_edge, %18
  %20 = phi i64 [ %.pre, %._crit_edge ], [ 0, %18 ]
  call void @Curl_debug(ptr noundef nonnull %0, i32 noundef 2, ptr noundef %16, i64 noundef %20) #10
  %21 = load i64, ptr %5, align 8, !tbaa !85
  %.not40 = icmp eq i64 %21, %15
  %22 = getelementptr inbounds nuw i8, ptr %1, i64 16
  br i1 %.not40, label %27, label %23

23:                                               ; preds = %19
  store ptr %16, ptr %22, align 8, !tbaa !87
  %24 = getelementptr inbounds nuw i8, ptr %1, i64 32
  store i64 %15, ptr %24, align 8, !tbaa !88
  %25 = sub i64 %15, %21
  %26 = getelementptr inbounds nuw i8, ptr %1, i64 24
  store i64 %25, ptr %26, align 8, !tbaa !82
  br label %32

27:                                               ; preds = %19
  %28 = getelementptr inbounds nuw i8, ptr %1, i64 40
  call void @llvm.memset.p0.i64(ptr noundef nonnull align 8 dereferenceable(24) %22, i8 0, i64 24, i1 false)
  %29 = call { i64, i32 } @Curl_now() #10
  %30 = extractvalue { i64, i32 } %29, 0
  %31 = extractvalue { i64, i32 } %29, 1
  store i64 %30, ptr %28, align 8, !tbaa !85
  %.sroa.4.0..sroa_idx = getelementptr inbounds nuw i8, ptr %1, i64 48
  store i32 %31, ptr %.sroa.4.0..sroa_idx, align 8, !tbaa !80
  br label %32

32:                                               ; preds = %23, %27, %13, %11, %8, %4
  %.0 = phi i32 [ 55, %4 ], [ %10, %8 ], [ %12, %11 ], [ %17, %13 ], [ 0, %27 ], [ 0, %23 ]
  call void @llvm.lifetime.end.p0(i64 8, ptr nonnull %5) #10
  ret i32 %.0
}